target datalayout = "e-m:e-p270:32:32-p271:32:32-p272:64:64-i64:64-i128:128-f80:128-n8:16:32:64-S128"
target triple = "x86_64-pc-linux-gnu"

%struct.darktable_t = type { %struct.dt_codepath_t, i32, i32, ptr, ptr, ptr, ptr, ptr, ptr, ptr, ptr, ptr, ptr, ptr, ptr, ptr, ptr, ptr, ptr, ptr, ptr, ptr, ptr, ptr, ptr, ptr, ptr, ptr, ptr, ptr, [64 x %struct.dt_pthread_mutex_t], %struct.dt_pthread_mutex_t, %struct.dt_pthread_mutex_t, %struct.dt_pthread_mutex_t, %struct.dt_pthread_mutex_t, %struct.dt_pthread_mutex_t, ptr, ptr, ptr, ptr, ptr, ptr, ptr, ptr, ptr, ptr, ptr, ptr, ptr, %struct.dt_lua_state_t, ptr, double, ptr, i32, [47 x i32], i32, i32, ptr, ptr, %struct.dt_sys_resources_t, %struct.dt_backthumb_t, %struct.dt_gimp_t }
%struct.dt_codepath_t = type { i8, [3 x i8] }
%struct.dt_pthread_mutex_t = type { %union.pthread_mutex_t }
%union.pthread_mutex_t = type { %struct.__pthread_mutex_s }
%struct.__pthread_mutex_s = type { i32, i32, i32, i32, i32, i16, i16, %struct.__pthread_internal_list }
%struct.__pthread_internal_list = type { ptr, ptr }
%struct.dt_lua_state_t = type { i32 }
%struct.dt_sys_resources_t = type { i64, i64, ptr, ptr, i32 }
%struct.dt_backthumb_t = type { double, double, i32, i32, i32, i32 }
%struct.dt_gimp_t = type { i32, ptr, ptr, i32, i32 }
%struct._GdkRGBA = type { double, double, double, double }
%struct.dt_gui_gtk_t = type { ptr, %struct.dt_gui_widgets_t, %struct.dt_gui_scrollbars_t, i32, ptr, i32, [39 x %struct._GdkRGBA], i32, i32, i32, i32, i32, double, double, double, double, ptr, double, double, double, double, i32, i32, [4096 x i8], i32, i32, i32, %struct.dt_pthread_mutex_t }
%struct.dt_gui_widgets_t = type { ptr, ptr, ptr, ptr, i32, i32, i32 }
%struct.dt_gui_scrollbars_t = type { ptr, ptr, i32 }

@darktable = external global %struct.darktable_t, align 8

; Function Attrs: nounwind uwtable
define void @dt_gui_gtk_set_source_rgb(ptr noundef %0, i32 noundef %1) #0 {
  %3 = alloca ptr, align 8
  %4 = alloca i32, align 4
  %5 = alloca %struct._GdkRGBA, align 8
  store ptr %0, ptr %3, align 8, !tbaa !83
  store i32 %1, ptr %4, align 4, !tbaa !17
  call void @llvm.lifetime.start.p0(i64 32, ptr %5) #15
  %6 = load ptr, ptr getelementptr inbounds nuw (%struct.darktable_t, ptr @darktable, i32 0, i32 14), align 8, !tbaa !24
  %7 = getelementptr inbounds nuw %struct.dt_gui_gtk_t, ptr %6, i32 0, i32 6
  %8 = load i32, ptr %4, align 4, !tbaa !17
  %9 = zext i32 %8 to i64
  %10 = getelementptr inbounds nuw [39 x %struct._GdkRGBA], ptr %7, i64 0, i64 %9
  call void @llvm.memcpy.p0.p0.i64(ptr align 8 %5, ptr align 8 %10, i64 32, i1 false), !tbaa.struct !85
  %11 = load ptr, ptr %3, align 8, !tbaa !83
  %12 = getelementptr inbounds nuw %struct._GdkRGBA, ptr %5, i32 0, i32 0
  %13 = load double, ptr %12, align 8, !tbaa !86
  %14 = getelementptr inbounds nuw %struct._GdkRGBA, ptr %5, i32 0, i32 1
  %15 = load double, ptr %14, align 8, !tbaa !88
  %16 = getelementptr inbounds nuw %struct._GdkRGBA, ptr %5, i32 0, i32 2
  %17 = load double, ptr %16, align 8, !tbaa !89
  call void @cairo_set_source_rgb(ptr noundef %11, double noundef %13, double noundef %15, double noundef %17)
  call void @llvm.lifetime.end.p0(i64 32, ptr %5) #15
  ret void
}