; Function Attrs: nounwind uwtable
define void @dt_gui_gtk_set_source_rgb(ptr noundef %0, i32 noundef %1) local_unnamed_addr #0 {
  %3 = load ptr, ptr getelementptr inbounds nuw (i8, ptr @darktable, i64 104), align 8, !tbaa !15
  %4 = getelementptr inbounds nuw i8, ptr %3, i64 104
  %5 = zext i32 %1 to i64
  %6 = getelementptr inbounds nuw [39 x %struct._GdkRGBA], ptr %4, i64 0, i64 %5
  %.sroa.0.0.copyload = load double, ptr %6, align 8, !tbaa !59
  %.sroa.4.0..sroa_idx = getelementptr inbounds nuw i8, ptr %6, i64 8
  %.sroa.4.0.copyload = load double, ptr %.sroa.4.0..sroa_idx, align 8, !tbaa !59
  %.sroa.5.0..sroa_idx = getelementptr inbounds nuw i8, ptr %6, i64 16
  %.sroa.5.0.copyload = load double, ptr %.sroa.5.0..sroa_idx, align 8, !tbaa !59
  tail call void @cairo_set_source_rgb(ptr noundef %0, double noundef %.sroa.0.0.copyload, double noundef %.sroa.4.0.copyload, double noundef %.sroa.5.0.copyload) #18
  ret void
}